target datalayout = "e-m:e-p270:32:32-p271:32:32-p272:64:64-i64:64-i128:128-f80:128-n8:16:32:64-S128"
target triple = "x86_64-pc-linux-gnu"

%struct.ShutdownInformation = type { ptr, ptr }
%struct.DumpSignalInformation = type { ptr, ptr, i8, i8 }
%struct.ParallelSlot = type { i32, ptr, ptr, ptr, i32, i32, i32, i32, i32 }
%struct.ParallelState = type { i32, ptr, ptr }

@shutdown_info = internal global %struct.ShutdownInformation zeroinitializer, align 8
@signal_info = internal global %struct.DumpSignalInformation zeroinitializer, align 8

; Function Attrs: nounwind uwtable
define internal zeroext i1 @HasEveryWorkerTerminated(ptr noundef %0) #0 {
  %2 = alloca i1, align 1
  %3 = alloca ptr, align 8
  %4 = alloca i32, align 4
  %5 = alloca i32, align 4
  store ptr %0, ptr %3, align 8
  call void @llvm.lifetime.start.p0(i64 4, ptr %4) #10
  store i32 0, ptr %4, align 4
  br label %6

6:                                                ; preds = %34, %1
  %7 = load i32, ptr %4, align 4
  %8 = load ptr, ptr %3, align 8
  %9 = getelementptr inbounds nuw %struct.ParallelState, ptr %8, i32 0, i32 0
  %10 = load i32, ptr %9, align 8
  %11 = icmp slt i32 %7, %10
  br i1 %11, label %12, label %37

12:                                               ; preds = %6
  %13 = load ptr, ptr %3, align 8
  %14 = getelementptr inbounds nuw %struct.ParallelState, ptr %13, i32 0, i32 2
  %15 = load ptr, ptr %14, align 8
  %16 = load i32, ptr %4, align 4
  %17 = sext i32 %16 to i64
  %18 = getelementptr inbounds %struct.ParallelSlot, ptr %15, i64 %17
  %19 = getelementptr inbounds nuw %struct.ParallelSlot, ptr %18, i32 0, i32 0
  %20 = load i32, ptr %19, align 8
  %21 = icmp eq i32 %20, 1
  br i1 %21, label %32, label %22

22:                                               ; preds = %12
  %23 = load ptr, ptr %3, align 8
  %24 = getelementptr inbounds nuw %struct.ParallelState, ptr %23, i32 0, i32 2
  %25 = load ptr, ptr %24, align 8
  %26 = load i32, ptr %4, align 4
  %27 = sext i32 %26 to i64
  %28 = getelementptr inbounds %struct.ParallelSlot, ptr %25, i64 %27
  %29 = getelementptr inbounds nuw %struct.ParallelSlot, ptr %28, i32 0, i32 0
  %30 = load i32, ptr %29, align 8
  %31 = icmp eq i32 %30, 2
  br i1 %31, label %32, label %33

32:                                               ; preds = %22, %12
  store i1 false, ptr %2, align 1
  store i32 1, ptr %5, align 4
  br label %38

33:                                               ; preds = %22
  br label %34

34:                                               ; preds = %33
  %35 = load i32, ptr %4, align 4
  %36 = add i32 %35, 1
  store i32 %36, ptr %4, align 4
  br label %6, !llvm.loop !19

37:                                               ; preds = %6
  store i1 true, ptr %2, align 1
  store i32 1, ptr %5, align 4
  br label %38

38:                                               ; preds = %37, %32
  call void @llvm.lifetime.end.p0(i64 4, ptr %4) #10
  %39 = load i1, ptr %2, align 1
  ret i1 %39
}

; Function Attrs: nounwind uwtable
define internal void @set_cancel_pstate(ptr noundef %0) #0 {
  %2 = alloca ptr, align 8
  store ptr %0, ptr %2, align 8
  %3 = load ptr, ptr %2, align 8
  store volatile ptr %3, ptr getelementptr inbounds nuw (%struct.DumpSignalInformation, ptr @signal_info, i32 0, i32 1), align 8
  ret void
}

; Function Attrs: nounwind uwtable
define internal void @WaitForTerminatingWorkers(ptr noundef %0) #0 {
  %2 = alloca ptr, align 8
  %3 = alloca ptr, align 8
  %4 = alloca i32, align 4
  %5 = alloca i32, align 4
  %6 = alloca i32, align 4
  store ptr %0, ptr %2, align 8
  br label %7

7:                                                ; preds = %38, %1
  %8 = load ptr, ptr %2, align 8
  %9 = call zeroext i1 @HasEveryWorkerTerminated(ptr noundef %8)
  %10 = xor i1 %9, true
  br i1 %10, label %11, label %47

11:                                               ; preds = %7
  call void @llvm.lifetime.start.p0(i64 8, ptr %3) #10
  store ptr null, ptr %3, align 8
  call void @llvm.lifetime.start.p0(i64 4, ptr %4) #10
  call void @llvm.lifetime.start.p0(i64 4, ptr %5) #10
  call void @llvm.lifetime.start.p0(i64 4, ptr %6) #10
  %12 = call i32 @wait(ptr noundef %5)
  store i32 %12, ptr %6, align 4
  store i32 0, ptr %4, align 4
  br label %13

13:                                               ; preds = %35, %11
  %14 = load i32, ptr %4, align 4
  %15 = load ptr, ptr %2, align 8
  %16 = getelementptr inbounds nuw %struct.ParallelState, ptr %15, i32 0, i32 0
  %17 = load i32, ptr %16, align 8
  %18 = icmp slt i32 %14, %17
  br i1 %18, label %19, label %38

19:                                               ; preds = %13
  %20 = load ptr, ptr %2, align 8
  %21 = getelementptr inbounds nuw %struct.ParallelState, ptr %20, i32 0, i32 2
  %22 = load ptr, ptr %21, align 8
  %23 = load i32, ptr %4, align 4
  %24 = sext i32 %23 to i64
  %25 = getelementptr inbounds %struct.ParallelSlot, ptr %22, i64 %24
  store ptr %25, ptr %3, align 8
  %26 = load ptr, ptr %3, align 8
  %27 = getelementptr inbounds nuw %struct.ParallelSlot, ptr %26, i32 0, i32 8
  %28 = load i32, ptr %27, align 8
  %29 = load i32, ptr %6, align 4
  %30 = icmp eq i32 %28, %29
  br i1 %30, label %31, label %34

31:                                               ; preds = %19
  %32 = load ptr, ptr %3, align 8
  %33 = getelementptr inbounds nuw %struct.ParallelSlot, ptr %32, i32 0, i32 8
  store i32 0, ptr %33, align 8
  br label %38

34:                                               ; preds = %19
  br label %35

35:                                               ; preds = %34
  %36 = load i32, ptr %4, align 4
  %37 = add i32 %36, 1
  store i32 %37, ptr %4, align 4
  br label %13, !llvm.loop !10

38:                                               ; preds = %31, %13
  %39 = load ptr, ptr %3, align 8
  %40 = getelementptr inbounds nuw %struct.ParallelSlot, ptr %39, i32 0, i32 0
  store i32 3, ptr %40, align 8
  %41 = load ptr, ptr %2, align 8
  %42 = getelementptr inbounds nuw %struct.ParallelState, ptr %41, i32 0, i32 1
  %43 = load ptr, ptr %42, align 8
  %44 = load i32, ptr %4, align 4
  %45 = sext i32 %44 to i64
  %46 = getelementptr inbounds ptr, ptr %43, i64 %45
  store ptr null, ptr %46, align 8
  call void @llvm.lifetime.end.p0(i64 4, ptr %6) #10
  call void @llvm.lifetime.end.p0(i64 4, ptr %5) #10
  call void @llvm.lifetime.end.p0(i64 4, ptr %4) #10
  call void @llvm.lifetime.end.p0(i64 8, ptr %3) #10
  br label %7, !llvm.loop !11

47:                                               ; preds = %7
  ret void
}

; Function Attrs: nounwind uwtable
define dso_local void @ParallelBackupEnd(ptr noundef %0, ptr noundef %1) #0 {
  %3 = alloca ptr, align 8
  %4 = alloca ptr, align 8
  %5 = alloca i32, align 4
  %6 = alloca i32, align 4
  store ptr %0, ptr %3, align 8
  store ptr %1, ptr %4, align 8
  call void @llvm.lifetime.start.p0(i64 4, ptr %5) #10
  %7 = load ptr, ptr %4, align 8
  %8 = getelementptr inbounds nuw %struct.ParallelState, ptr %7, i32 0, i32 0
  %9 = load i32, ptr %8, align 8
  %10 = icmp eq i32 %9, 1
  br i1 %10, label %11, label %12

11:                                               ; preds = %2
  store i32 1, ptr %6, align 4
  br label %50

12:                                               ; preds = %2
  store i32 0, ptr %5, align 4
  br label %13

13:                                               ; preds = %38, %12
  %14 = load i32, ptr %5, align 4
  %15 = load ptr, ptr %4, align 8
  %16 = getelementptr inbounds nuw %struct.ParallelState, ptr %15, i32 0, i32 0
  %17 = load i32, ptr %16, align 8
  %18 = icmp slt i32 %14, %17
  br i1 %18, label %19, label %41

19:                                               ; preds = %13
  %20 = load ptr, ptr %4, align 8
  %21 = getelementptr inbounds nuw %struct.ParallelState, ptr %20, i32 0, i32 2
  %22 = load ptr, ptr %21, align 8
  %23 = load i32, ptr %5, align 4
  %24 = sext i32 %23 to i64
  %25 = getelementptr inbounds %struct.ParallelSlot, ptr %22, i64 %24
  %26 = getelementptr inbounds nuw %struct.ParallelSlot, ptr %25, i32 0, i32 4
  %27 = load i32, ptr %26, align 8
  %28 = call i32 @close(i32 noundef %27)
  %29 = load ptr, ptr %4, align 8
  %30 = getelementptr inbounds nuw %struct.ParallelState, ptr %29, i32 0, i32 2
  %31 = load ptr, ptr %30, align 8
  %32 = load i32, ptr %5, align 4
  %33 = sext i32 %32 to i64
  %34 = getelementptr inbounds %struct.ParallelSlot, ptr %31, i64 %33
  %35 = getelementptr inbounds nuw %struct.ParallelSlot, ptr %34, i32 0, i32 5
  %36 = load i32, ptr %35, align 4
  %37 = call i32 @close(i32 noundef %36)
  br label %38

38:                                               ; preds = %19
  %39 = load i32, ptr %5, align 4
  %40 = add i32 %39, 1
  store i32 %40, ptr %5, align 4
  br label %13, !llvm.loop !9

41:                                               ; preds = %13
  %42 = load ptr, ptr %4, align 8
  call void @WaitForTerminatingWorkers(ptr noundef %42)
  store ptr null, ptr @shutdown_info, align 8
  call void @set_cancel_pstate(ptr noundef null)
  %43 = load ptr, ptr %4, align 8
  %44 = getelementptr inbounds nuw %struct.ParallelState, ptr %43, i32 0, i32 1
  %45 = load ptr, ptr %44, align 8
  call void @free(ptr noundef %45) #10
  %46 = load ptr, ptr %4, align 8
  %47 = getelementptr inbounds nuw %struct.ParallelState, ptr %46, i32 0, i32 2
  %48 = load ptr, ptr %47, align 8
  call void @free(ptr noundef %48) #10
  %49 = load ptr, ptr %4, align 8
  call void @free(ptr noundef %49) #10
  store i32 0, ptr %6, align 4
  br label %50

50:                                               ; preds = %41, %11
  call void @llvm.lifetime.end.p0(i64 4, ptr %5) #10
  %51 = load i32, ptr %6, align 4
  switch i32 %51, label %53 [
    i32 0, label %52
    i32 1, label %52
  ]

52:                                               ; preds = %50, %50
  ret void

53:                                               ; preds = %50
  unreachable
}