; Function Attrs: nounwind uwtable
define dso_local void @ParallelBackupEnd(ptr noundef readnone captures(none) %0, ptr noundef captures(none) %1) local_unnamed_addr #1 {
  %3 = alloca i32, align 4
  %4 = load i32, ptr %1, align 8
  %5 = icmp eq i32 %4, 1
  br i1 %5, label %53, label %.preheader

.preheader:                                       ; preds = %2
  %6 = icmp sgt i32 %4, 0
  br i1 %6, label %.lr.ph, label %WaitForTerminatingWorkers.exit

.lr.ph:                                           ; preds = %.preheader
  %7 = getelementptr inbounds nuw i8, ptr %1, i64 16
  br label %8

8:                                                ; preds = %.lr.ph, %8
  %indvars.iv = phi i64 [ 0, %.lr.ph ], [ %indvars.iv.next, %8 ]
  %9 = load ptr, ptr %7, align 8
  %10 = getelementptr inbounds nuw %struct.ParallelSlot, ptr %9, i64 %indvars.iv, i32 4
  %11 = load i32, ptr %10, align 8
  %12 = tail call i32 @close(i32 noundef %11) #18
  %13 = load ptr, ptr %7, align 8
  %14 = getelementptr inbounds nuw %struct.ParallelSlot, ptr %13, i64 %indvars.iv, i32 5
  %15 = load i32, ptr %14, align 4
  %16 = tail call i32 @close(i32 noundef %15) #18
  %indvars.iv.next = add nuw nsw i64 %indvars.iv, 1
  %.pr = load i32, ptr %1, align 8
  %17 = sext i32 %.pr to i64
  %18 = icmp slt i64 %indvars.iv.next, %17
  br i1 %18, label %8, label %._crit_edge, !llvm.loop !15

._crit_edge:                                      ; preds = %8
  %19 = icmp slt i32 %.pr, 1
  br i1 %19, label %WaitForTerminatingWorkers.exit, label %.lr.ph.i.lr.ph.i

.lr.ph.i.lr.ph.i:                                 ; preds = %._crit_edge
  %20 = getelementptr inbounds nuw i8, ptr %1, i64 16
  %21 = getelementptr inbounds nuw i8, ptr %1, i64 8
  br label %.lr.ph.i.i

.lr.ph.i.i:                                       ; preds = %.loopexit.i, %.lr.ph.i.lr.ph.i
  %22 = phi i32 [ %.pr, %.lr.ph.i.lr.ph.i ], [ %47, %.loopexit.i ]
  %23 = load ptr, ptr %20, align 8
  %wide.trip.count.i.i = zext nneg i32 %22 to i64
  br label %25

24:                                               ; preds = %25
  %indvars.iv.next.i.i = add nuw nsw i64 %indvars.iv.i.i, 1
  %exitcond.not.i.i = icmp eq i64 %indvars.iv.next.i.i, %wide.trip.count.i.i
  br i1 %exitcond.not.i.i, label %WaitForTerminatingWorkers.exit, label %25, !llvm.loop !8

25:                                               ; preds = %24, %.lr.ph.i.i
  %indvars.iv.i.i = phi i64 [ 0, %.lr.ph.i.i ], [ %indvars.iv.next.i.i, %24 ]
  %26 = getelementptr inbounds nuw %struct.ParallelSlot, ptr %23, i64 %indvars.iv.i.i
  %27 = load i32, ptr %26, align 8
  %28 = add i32 %27, -3
  %switch.i.i = icmp ult i32 %28, -2
  br i1 %switch.i.i, label %24, label %HasEveryWorkerTerminated.exit.i

HasEveryWorkerTerminated.exit.i:                  ; preds = %25
  call void @llvm.lifetime.start.p0(i64 4, ptr nonnull %3) #18
  %29 = call i32 @wait(ptr noundef nonnull %3) #18
  %30 = load i32, ptr %1, align 8
  %31 = icmp sgt i32 %30, 0
  call void @llvm.assume(i1 %31)
  %32 = load ptr, ptr %20, align 8
  %33 = add nsw i32 %30, -1
  %34 = zext nneg i32 %33 to i64
  %35 = mul nuw nsw i64 %34, 56
  %scevgep.i = getelementptr i8, ptr %32, i64 %35
  %wide.trip.count.i = zext nneg i32 %30 to i64
  br label %36

36:                                               ; preds = %43, %HasEveryWorkerTerminated.exit.i
  %indvars.iv.i = phi i64 [ 0, %HasEveryWorkerTerminated.exit.i ], [ %indvars.iv.next.i, %43 ]
  %37 = getelementptr inbounds nuw %struct.ParallelSlot, ptr %32, i64 %indvars.iv.i
  %38 = getelementptr inbounds nuw i8, ptr %37, i64 48
  %39 = load i32, ptr %38, align 8
  %40 = icmp eq i32 %39, %29
  br i1 %40, label %41, label %43

41:                                               ; preds = %36
  %42 = getelementptr inbounds nuw i8, ptr %37, i64 48
  store i32 0, ptr %42, align 8
  %.pre = and i64 %indvars.iv.i, 4294967295
  br label %.loopexit.i

43:                                               ; preds = %36
  %indvars.iv.next.i = add nuw nsw i64 %indvars.iv.i, 1
  %exitcond.not.i = icmp eq i64 %indvars.iv.next.i, %wide.trip.count.i
  br i1 %exitcond.not.i, label %.loopexit.i, label %36, !llvm.loop !9

.loopexit.i:                                      ; preds = %43, %41
  %.pre-phi = phi i64 [ %.pre, %41 ], [ %wide.trip.count.i, %43 ]
  %44 = phi ptr [ %37, %41 ], [ %scevgep.i, %43 ]
  store i32 3, ptr %44, align 8
  %45 = load ptr, ptr %21, align 8
  %46 = getelementptr inbounds nuw ptr, ptr %45, i64 %.pre-phi
  store ptr null, ptr %46, align 8
  call void @llvm.lifetime.end.p0(i64 4, ptr nonnull %3) #18
  %47 = load i32, ptr %1, align 8
  %48 = icmp slt i32 %47, 1
  br i1 %48, label %WaitForTerminatingWorkers.exit, label %.lr.ph.i.i, !llvm.loop !10

WaitForTerminatingWorkers.exit:                   ; preds = %.loopexit.i, %24, %.preheader, %._crit_edge
  store ptr null, ptr @shutdown_info, align 8
  store volatile ptr null, ptr getelementptr inbounds nuw (i8, ptr @signal_info, i64 8), align 8
  %49 = getelementptr inbounds nuw i8, ptr %1, i64 8
  %50 = load ptr, ptr %49, align 8
  call void @free(ptr noundef %50) #18
  %51 = getelementptr inbounds nuw i8, ptr %1, i64 16
  %52 = load ptr, ptr %51, align 8
  call void @free(ptr noundef %52) #18
  call void @free(ptr noundef %1) #18
  br label %53

53:                                               ; preds = %2, %WaitForTerminatingWorkers.exit
  ret void
}